target datalayout = "e-m:e-p270:32:32-p271:32:32-p272:64:64-i64:64-i128:128-f80:128-n8:16:32:64-S128"
target triple = "x86_64-pc-linux-gnu"

%struct.ident_t = type { i32, i32, i32, i32, ptr }
%class.anon.174 = type { ptr, ptr, ptr }

@1 = private unnamed_addr constant %struct.ident_t { i32 0, i32 514, i32 0, i32 22, ptr @0 }, align 8

; Function Attrs: inlinehint mustprogress nounwind ssp uwtable
define linkonce_odr hidden noundef float @_ZN6open3d4core6linalg6kernel7dot_3x1IfEET_PKS4_S6_(ptr noundef %0, ptr noundef %1) #4 comdat {
  %3 = alloca ptr, align 8
  %4 = alloca ptr, align 8
  store ptr %0, ptr %3, align 8, !tbaa !38
  store ptr %1, ptr %4, align 8, !tbaa !38
  %5 = load ptr, ptr %3, align 8, !tbaa !38
  %6 = getelementptr inbounds float, ptr %5, i64 0
  %7 = load float, ptr %6, align 4, !tbaa !13
  %8 = load ptr, ptr %4, align 8, !tbaa !38
  %9 = getelementptr inbounds float, ptr %8, i64 0
  %10 = load float, ptr %9, align 4, !tbaa !13
  %11 = load ptr, ptr %3, align 8, !tbaa !38
  %12 = getelementptr inbounds float, ptr %11, i64 1
  %13 = load float, ptr %12, align 4, !tbaa !13
  %14 = load ptr, ptr %4, align 8, !tbaa !38
  %15 = getelementptr inbounds float, ptr %14, i64 1
  %16 = load float, ptr %15, align 4, !tbaa !13
  %17 = fmul float %13, %16
  %18 = call float @llvm.fmuladd.f32(float %7, float %10, float %17)
  %19 = load ptr, ptr %3, align 8, !tbaa !38
  %20 = getelementptr inbounds float, ptr %19, i64 2
  %21 = load float, ptr %20, align 4, !tbaa !13
  %22 = load ptr, ptr %4, align 8, !tbaa !38
  %23 = getelementptr inbounds float, ptr %22, i64 2
  %24 = load float, ptr %23, align 4, !tbaa !13
  %25 = call float @llvm.fmuladd.f32(float %21, float %24, float %18)
  ret float %25
}

; Function Attrs: inlinehint mustprogress nounwind ssp uwtable
define linkonce_odr noundef float @_ZSt4sqrtf(float noundef %0) #4 comdat {
  %2 = alloca float, align 4
  store float %0, ptr %2, align 4, !tbaa !13
  %3 = load float, ptr %2, align 4, !tbaa !13
  %4 = call float @sqrtf(float noundef %3) #27, !tbaa !47
  ret float %4
}

; Function Attrs: noinline noreturn nounwind ssp uwtable
define linkonce_odr hidden void @__clang_call_terminate(ptr noundef %0) #13 comdat {
  %2 = call ptr @__cxa_begin_catch(ptr %0) #27
  call void @_ZSt9terminatev() #31
  unreachable
}

; Function Attrs: inlinehint mustprogress nounwind ssp uwtable
define internal void @"_ZZZZN6open3d1t8geometry6kernel10pointcloud37OrientNormalsTowardsCameraLocationCPUERKNS_4core6TensorERS5_S7_ENK3$_0clEvENKUlvE_clEvENKUllE_clEl"(ptr noundef nonnull align 8 dereferenceable(24) %0, i64 noundef %1) #4 align 2 {
  %3 = alloca ptr, align 8
  %4 = alloca i64, align 8
  %5 = alloca i64, align 8
  %6 = alloca ptr, align 8
  %7 = alloca ptr, align 8
  %8 = alloca [3 x float], align 4
  %9 = alloca float, align 4
  %10 = alloca float, align 4
  store ptr %0, ptr %3, align 8, !tbaa !32
  store i64 %1, ptr %4, align 8, !tbaa !15
  %11 = load ptr, ptr %3, align 8
  call void @llvm.lifetime.start.p0(i64 8, ptr %5) #27
  %12 = load i64, ptr %4, align 8, !tbaa !15
  %13 = mul nsw i64 3, %12
  store i64 %13, ptr %5, align 8, !tbaa !15
  call void @llvm.lifetime.start.p0(i64 8, ptr %6) #27
  %14 = getelementptr inbounds nuw %class.anon.174, ptr %11, i32 0, i32 0
  %15 = load ptr, ptr %14, align 8, !tbaa !1232
  %16 = load i64, ptr %5, align 8, !tbaa !15
  %17 = getelementptr inbounds float, ptr %15, i64 %16
  store ptr %17, ptr %6, align 8, !tbaa !38
  call void @llvm.lifetime.start.p0(i64 8, ptr %7) #27
  %18 = getelementptr inbounds nuw %class.anon.174, ptr %11, i32 0, i32 1
  %19 = load ptr, ptr %18, align 8, !tbaa !1234
  %20 = load i64, ptr %5, align 8, !tbaa !15
  %21 = getelementptr inbounds float, ptr %19, i64 %20
  store ptr %21, ptr %7, align 8, !tbaa !38
  call void @llvm.lifetime.start.p0(i64 12, ptr %8) #27
  %22 = getelementptr inbounds nuw %class.anon.174, ptr %11, i32 0, i32 2
  %23 = load ptr, ptr %22, align 8, !tbaa !1235
  %24 = getelementptr inbounds float, ptr %23, i64 0
  %25 = load float, ptr %24, align 4, !tbaa !13
  %26 = load ptr, ptr %7, align 8, !tbaa !38
  %27 = getelementptr inbounds float, ptr %26, i64 0
  %28 = load float, ptr %27, align 4, !tbaa !13
  %29 = fsub float %25, %28
  store float %29, ptr %8, align 4, !tbaa !13
  %30 = getelementptr inbounds float, ptr %8, i64 1
  %31 = getelementptr inbounds nuw %class.anon.174, ptr %11, i32 0, i32 2
  %32 = load ptr, ptr %31, align 8, !tbaa !1235
  %33 = getelementptr inbounds float, ptr %32, i64 1
  %34 = load float, ptr %33, align 4, !tbaa !13
  %35 = load ptr, ptr %7, align 8, !tbaa !38
  %36 = getelementptr inbounds float, ptr %35, i64 1
  %37 = load float, ptr %36, align 4, !tbaa !13
  %38 = fsub float %34, %37
  store float %38, ptr %30, align 4, !tbaa !13
  %39 = getelementptr inbounds float, ptr %8, i64 2
  %40 = getelementptr inbounds nuw %class.anon.174, ptr %11, i32 0, i32 2
  %41 = load ptr, ptr %40, align 8, !tbaa !1235
  %42 = getelementptr inbounds float, ptr %41, i64 2
  %43 = load float, ptr %42, align 4, !tbaa !13
  %44 = load ptr, ptr %7, align 8, !tbaa !38
  %45 = getelementptr inbounds float, ptr %44, i64 2
  %46 = load float, ptr %45, align 4, !tbaa !13
  %47 = fsub float %43, %46
  store float %47, ptr %39, align 4, !tbaa !13
  call void @llvm.lifetime.start.p0(i64 4, ptr %9) #27
  %48 = load ptr, ptr %6, align 8, !tbaa !38
  %49 = getelementptr inbounds float, ptr %48, i64 0
  %50 = load float, ptr %49, align 4, !tbaa !13
  %51 = load ptr, ptr %6, align 8, !tbaa !38
  %52 = getelementptr inbounds float, ptr %51, i64 0
  %53 = load float, ptr %52, align 4, !tbaa !13
  %54 = load ptr, ptr %6, align 8, !tbaa !38
  %55 = getelementptr inbounds float, ptr %54, i64 1
  %56 = load float, ptr %55, align 4, !tbaa !13
  %57 = load ptr, ptr %6, align 8, !tbaa !38
  %58 = getelementptr inbounds float, ptr %57, i64 1
  %59 = load float, ptr %58, align 4, !tbaa !13
  %60 = fmul float %56, %59
  %61 = call float @llvm.fmuladd.f32(float %50, float %53, float %60)
  %62 = load ptr, ptr %6, align 8, !tbaa !38
  %63 = getelementptr inbounds float, ptr %62, i64 2
  %64 = load float, ptr %63, align 4, !tbaa !13
  %65 = load ptr, ptr %6, align 8, !tbaa !38
  %66 = getelementptr inbounds float, ptr %65, i64 2
  %67 = load float, ptr %66, align 4, !tbaa !13
  %68 = call float @llvm.fmuladd.f32(float %64, float %67, float %61)
  %69 = call noundef float @_ZSt4sqrtf(float noundef %68)
  store float %69, ptr %9, align 4, !tbaa !13
  %70 = load float, ptr %9, align 4, !tbaa !13
  %71 = fpext float %70 to double
  %72 = fcmp oeq double %71, 0.000000e+00
  br i1 %72, label %73, label %135

73:                                               ; preds = %2
  %74 = getelementptr inbounds [3 x float], ptr %8, i64 0, i64 0
  %75 = load float, ptr %74, align 4, !tbaa !13
  %76 = load ptr, ptr %6, align 8, !tbaa !38
  %77 = getelementptr inbounds float, ptr %76, i64 0
  store float %75, ptr %77, align 4, !tbaa !13
  %78 = getelementptr inbounds [3 x float], ptr %8, i64 0, i64 1
  %79 = load float, ptr %78, align 4, !tbaa !13
  %80 = load ptr, ptr %6, align 8, !tbaa !38
  %81 = getelementptr inbounds float, ptr %80, i64 1
  store float %79, ptr %81, align 4, !tbaa !13
  %82 = getelementptr inbounds [3 x float], ptr %8, i64 0, i64 2
  %83 = load float, ptr %82, align 4, !tbaa !13
  %84 = load ptr, ptr %6, align 8, !tbaa !38
  %85 = getelementptr inbounds float, ptr %84, i64 2
  store float %83, ptr %85, align 4, !tbaa !13
  call void @llvm.lifetime.start.p0(i64 4, ptr %10) #27
  %86 = load ptr, ptr %6, align 8, !tbaa !38
  %87 = getelementptr inbounds float, ptr %86, i64 0
  %88 = load float, ptr %87, align 4, !tbaa !13
  %89 = load ptr, ptr %6, align 8, !tbaa !38
  %90 = getelementptr inbounds float, ptr %89, i64 0
  %91 = load float, ptr %90, align 4, !tbaa !13
  %92 = load ptr, ptr %6, align 8, !tbaa !38
  %93 = getelementptr inbounds float, ptr %92, i64 1
  %94 = load float, ptr %93, align 4, !tbaa !13
  %95 = load ptr, ptr %6, align 8, !tbaa !38
  %96 = getelementptr inbounds float, ptr %95, i64 1
  %97 = load float, ptr %96, align 4, !tbaa !13
  %98 = fmul float %94, %97
  %99 = call float @llvm.fmuladd.f32(float %88, float %91, float %98)
  %100 = load ptr, ptr %6, align 8, !tbaa !38
  %101 = getelementptr inbounds float, ptr %100, i64 2
  %102 = load float, ptr %101, align 4, !tbaa !13
  %103 = load ptr, ptr %6, align 8, !tbaa !38
  %104 = getelementptr inbounds float, ptr %103, i64 2
  %105 = load float, ptr %104, align 4, !tbaa !13
  %106 = call float @llvm.fmuladd.f32(float %102, float %105, float %99)
  %107 = call noundef float @_ZSt4sqrtf(float noundef %106)
  store float %107, ptr %10, align 4, !tbaa !13
  %108 = load float, ptr %10, align 4, !tbaa !13
  %109 = fpext float %108 to double
  %110 = fcmp oeq double %109, 0.000000e+00
  br i1 %110, label %111, label %118

111:                                              ; preds = %73
  %112 = load ptr, ptr %6, align 8, !tbaa !38
  %113 = getelementptr inbounds float, ptr %112, i64 0
  store float 0.000000e+00, ptr %113, align 4, !tbaa !13
  %114 = load ptr, ptr %6, align 8, !tbaa !38
  %115 = getelementptr inbounds float, ptr %114, i64 1
  store float 0.000000e+00, ptr %115, align 4, !tbaa !13
  %116 = load ptr, ptr %6, align 8, !tbaa !38
  %117 = getelementptr inbounds float, ptr %116, i64 2
  store float 1.000000e+00, ptr %117, align 4, !tbaa !13
  br label %134

118:                                              ; preds = %73
  %119 = load float, ptr %10, align 4, !tbaa !13
  %120 = load ptr, ptr %6, align 8, !tbaa !38
  %121 = getelementptr inbounds float, ptr %120, i64 0
  %122 = load float, ptr %121, align 4, !tbaa !13
  %123 = fdiv float %122, %119
  store float %123, ptr %121, align 4, !tbaa !13
  %124 = load float, ptr %10, align 4, !tbaa !13
  %125 = load ptr, ptr %6, align 8, !tbaa !38
  %126 = getelementptr inbounds float, ptr %125, i64 1
  %127 = load float, ptr %126, align 4, !tbaa !13
  %128 = fdiv float %127, %124
  store float %128, ptr %126, align 4, !tbaa !13
  %129 = load float, ptr %10, align 4, !tbaa !13
  %130 = load ptr, ptr %6, align 8, !tbaa !38
  %131 = getelementptr inbounds float, ptr %130, i64 2
  %132 = load float, ptr %131, align 4, !tbaa !13
  %133 = fdiv float %132, %129
  store float %133, ptr %131, align 4, !tbaa !13
  br label %134

134:                                              ; preds = %118, %111
  call void @llvm.lifetime.end.p0(i64 4, ptr %10) #27
  br label %154

135:                                              ; preds = %2
  %136 = load ptr, ptr %6, align 8, !tbaa !38
  %137 = getelementptr inbounds [3 x float], ptr %8, i64 0, i64 0
  %138 = call noundef float @_ZN6open3d4core6linalg6kernel7dot_3x1IfEET_PKS4_S6_(ptr noundef %136, ptr noundef %137)
  %139 = fcmp olt float %138, 0.000000e+00
  br i1 %139, label %140, label %153

140:                                              ; preds = %135
  %141 = load ptr, ptr %6, align 8, !tbaa !38
  %142 = getelementptr inbounds float, ptr %141, i64 0
  %143 = load float, ptr %142, align 4, !tbaa !13
  %144 = fmul float %143, -1.000000e+00
  store float %144, ptr %142, align 4, !tbaa !13
  %145 = load ptr, ptr %6, align 8, !tbaa !38
  %146 = getelementptr inbounds float, ptr %145, i64 1
  %147 = load float, ptr %146, align 4, !tbaa !13
  %148 = fmul float %147, -1.000000e+00
  store float %148, ptr %146, align 4, !tbaa !13
  %149 = load ptr, ptr %6, align 8, !tbaa !38
  %150 = getelementptr inbounds float, ptr %149, i64 2
  %151 = load float, ptr %150, align 4, !tbaa !13
  %152 = fmul float %151, -1.000000e+00
  store float %152, ptr %150, align 4, !tbaa !13
  br label %153

153:                                              ; preds = %140, %135
  br label %154

154:                                              ; preds = %153, %134
  call void @llvm.lifetime.end.p0(i64 4, ptr %9) #27
  call void @llvm.lifetime.end.p0(i64 12, ptr %8) #27
  call void @llvm.lifetime.end.p0(i64 8, ptr %7) #27
  call void @llvm.lifetime.end.p0(i64 8, ptr %6) #27
  call void @llvm.lifetime.end.p0(i64 8, ptr %5) #27
  ret void
}

; Function Attrs: alwaysinline norecurse nounwind ssp uwtable
define internal void @"_ZN6open3d4core15ParallelForCPU_IZZZNS_1t8geometry6kernel10pointcloud37OrientNormalsTowardsCameraLocationCPUERKNS0_6TensorERS6_S8_ENK3$_0clEvENKUlvE_clEvEUllE_EEvRKNS0_6DeviceElRKT_.omp_outlined"(ptr noalias noundef %0, ptr noalias noundef %1, ptr noundef nonnull align 8 dereferenceable(8) %2, ptr noundef nonnull align 8 dereferenceable(24) %3) #26 personality ptr @__gxx_personality_v0 {
  %5 = alloca ptr, align 8
  %6 = alloca ptr, align 8
  %7 = alloca ptr, align 8
  %8 = alloca ptr, align 8
  %9 = alloca ptr, align 8
  %10 = alloca i64, align 8
  %11 = alloca i64, align 8
  %12 = alloca i64, align 8
  %13 = alloca i64, align 8
  %14 = alloca i64, align 8
  %15 = alloca i64, align 8
  %16 = alloca i64, align 8
  %17 = alloca i32, align 4
  %18 = alloca i64, align 8
  store ptr %0, ptr %5, align 8, !tbaa !276
  store ptr %1, ptr %6, align 8, !tbaa !276
  store ptr %2, ptr %7, align 8, !tbaa !35
  store ptr %3, ptr %8, align 8, !tbaa !32
  %19 = load ptr, ptr %7, align 8, !tbaa !35
  %20 = load ptr, ptr %8, align 8, !tbaa !32
  store ptr %20, ptr %9, align 8
  call void @llvm.lifetime.start.p0(i64 8, ptr %10) #27
  call void @llvm.lifetime.start.p0(i64 8, ptr %11) #27
  %21 = load i64, ptr %19, align 8, !tbaa !15
  store i64 %21, ptr %11, align 8, !tbaa !15
  call void @llvm.lifetime.start.p0(i64 8, ptr %12) #27
  %22 = load i64, ptr %11, align 8, !tbaa !15
  %23 = sub nsw i64 %22, 0
  %24 = sdiv i64 %23, 1
  %25 = sub nsw i64 %24, 1
  store i64 %25, ptr %12, align 8, !tbaa !15
  call void @llvm.lifetime.start.p0(i64 8, ptr %13) #27
  store i64 0, ptr %13, align 8, !tbaa !15
  call void @llvm.lifetime.end.p0(i64 8, ptr %13) #27
  %26 = load i64, ptr %11, align 8, !tbaa !15
  %27 = icmp slt i64 0, %26
  br i1 %27, label %28, label %62

28:                                               ; preds = %4
  call void @llvm.lifetime.start.p0(i64 8, ptr %14) #27
  store i64 0, ptr %14, align 8, !tbaa !15
  call void @llvm.lifetime.start.p0(i64 8, ptr %15) #27
  %29 = load i64, ptr %12, align 8, !tbaa !15
  store i64 %29, ptr %15, align 8, !tbaa !15
  call void @llvm.lifetime.start.p0(i64 8, ptr %16) #27
  store i64 1, ptr %16, align 8, !tbaa !15
  call void @llvm.lifetime.start.p0(i64 4, ptr %17) #27
  store i32 0, ptr %17, align 4, !tbaa !47
  call void @llvm.lifetime.start.p0(i64 8, ptr %18) #27
  %30 = load ptr, ptr %5, align 8
  %31 = load i32, ptr %30, align 4, !tbaa !47
  call void @__kmpc_for_static_init_8(ptr @1, i32 %31, i32 34, ptr %17, ptr %14, ptr %15, ptr %16, i64 1, i64 1)
  %32 = load i64, ptr %15, align 8, !tbaa !15
  %33 = load i64, ptr %12, align 8, !tbaa !15
  %34 = icmp sgt i64 %32, %33
  br i1 %34, label %35, label %37

35:                                               ; preds = %28
  %36 = load i64, ptr %12, align 8, !tbaa !15
  br label %39

37:                                               ; preds = %28
  %38 = load i64, ptr %15, align 8, !tbaa !15
  br label %39

39:                                               ; preds = %37, %35
  %40 = phi i64 [ %36, %35 ], [ %38, %37 ]
  store i64 %40, ptr %15, align 8, !tbaa !15
  %41 = load i64, ptr %14, align 8, !tbaa !15
  store i64 %41, ptr %10, align 8, !tbaa !15
  br label %42

42:                                               ; preds = %55, %39
  %43 = load i64, ptr %10, align 8, !tbaa !15
  %44 = load i64, ptr %15, align 8, !tbaa !15
  %45 = icmp sle i64 %43, %44
  br i1 %45, label %47, label %46

46:                                               ; preds = %42
  br label %58

47:                                               ; preds = %42
  %48 = load i64, ptr %10, align 8, !tbaa !15
  %49 = mul nsw i64 %48, 1
  %50 = add nsw i64 0, %49
  store i64 %50, ptr %18, align 8, !tbaa !15
  %51 = load ptr, ptr %9, align 8, !tbaa !32
  %52 = load i64, ptr %18, align 8, !tbaa !15
  invoke void @"_ZZZZN6open3d1t8geometry6kernel10pointcloud37OrientNormalsTowardsCameraLocationCPUERKNS_4core6TensorERS5_S7_ENK3$_0clEvENKUlvE_clEvENKUllE_clEl"(ptr noundef nonnull align 8 dereferenceable(24) %51, i64 noundef %52)
          to label %53 unwind label %63

53:                                               ; preds = %47
  br label %54

54:                                               ; preds = %53
  br label %55

55:                                               ; preds = %54
  %56 = load i64, ptr %10, align 8, !tbaa !15
  %57 = add nsw i64 %56, 1
  store i64 %57, ptr %10, align 8, !tbaa !15
  br label %42

58:                                               ; preds = %46
  br label %59

59:                                               ; preds = %58
  %60 = load ptr, ptr %5, align 8
  %61 = load i32, ptr %60, align 4, !tbaa !47
  call void @__kmpc_for_static_fini(ptr @1, i32 %61)
  call void @llvm.lifetime.end.p0(i64 8, ptr %18) #27
  call void @llvm.lifetime.end.p0(i64 4, ptr %17) #27
  call void @llvm.lifetime.end.p0(i64 8, ptr %16) #27
  call void @llvm.lifetime.end.p0(i64 8, ptr %15) #27
  call void @llvm.lifetime.end.p0(i64 8, ptr %14) #27
  br label %62

62:                                               ; preds = %59, %4
  call void @llvm.lifetime.end.p0(i64 8, ptr %12) #27
  call void @llvm.lifetime.end.p0(i64 8, ptr %11) #27
  call void @llvm.lifetime.end.p0(i64 8, ptr %10) #27
  ret void

63:                                               ; preds = %47
  %64 = landingpad { ptr, i32 }
          catch ptr null
  %65 = extractvalue { ptr, i32 } %64, 0
  call void @__clang_call_terminate(ptr %65) #31
  unreachable
}