; Function Attrs: alwaysinline norecurse nounwind ssp uwtable
define internal void @"_ZN6open3d4core15ParallelForCPU_IZZZNS_1t8geometry6kernel10pointcloud37OrientNormalsTowardsCameraLocationCPUERKNS0_6TensorERS6_S8_ENK3$_0clEvENKUlvE_clEvEUllE_EEvRKNS0_6DeviceElRKT_.omp_outlined"(ptr noalias noundef readonly captures(none) %0, ptr noalias readnone captures(none) %1, ptr noundef nonnull readonly align 8 captures(none) dereferenceable(8) %2, ptr noundef nonnull readonly align 8 captures(none) dereferenceable(24) %3) #25 personality ptr @__gxx_personality_v0 {
  %5 = alloca i64, align 8
  %6 = alloca i64, align 8
  %7 = alloca i64, align 8
  %8 = alloca i32, align 4
  %9 = load i64, ptr %2, align 8, !tbaa !8
  %10 = icmp sgt i64 %9, 0
  br i1 %10, label %11, label %68

11:                                               ; preds = %4
  %12 = add nsw i64 %9, -1
  call void @llvm.lifetime.start.p0(i64 8, ptr nonnull %5) #26
  store i64 0, ptr %5, align 8, !tbaa !8
  call void @llvm.lifetime.start.p0(i64 8, ptr nonnull %6) #26
  store i64 %12, ptr %6, align 8, !tbaa !8
  call void @llvm.lifetime.start.p0(i64 8, ptr nonnull %7) #26
  store i64 1, ptr %7, align 8, !tbaa !8
  call void @llvm.lifetime.start.p0(i64 4, ptr nonnull %8) #26
  store i32 0, ptr %8, align 4, !tbaa !34
  %13 = load i32, ptr %0, align 4, !tbaa !34
  call void @__kmpc_for_static_init_8(ptr nonnull @1, i32 %13, i32 34, ptr nonnull %8, ptr nonnull %5, ptr nonnull %6, ptr nonnull %7, i64 1, i64 1)
  %14 = load i64, ptr %6, align 8, !tbaa !8
  %15 = call i64 @llvm.smin.i64(i64 %14, i64 %12)
  store i64 %15, ptr %6, align 8, !tbaa !8
  %16 = load i64, ptr %5, align 8, !tbaa !8
  %.not13 = icmp sgt i64 %16, %15
  br i1 %.not13, label %._crit_edge, label %.lr.ph

.lr.ph:                                           ; preds = %11
  %17 = load ptr, ptr %3, align 8, !tbaa !878
  %18 = getelementptr inbounds nuw i8, ptr %3, i64 8
  %19 = load ptr, ptr %18, align 8, !tbaa !880
  %20 = getelementptr inbounds nuw i8, ptr %3, i64 16
  %21 = load ptr, ptr %20, align 8, !tbaa !881
  %22 = getelementptr inbounds nuw i8, ptr %21, i64 4
  %23 = getelementptr inbounds nuw i8, ptr %21, i64 8
  br label %24

24:                                               ; preds = %.lr.ph, %"_ZZZZN6open3d1t8geometry6kernel10pointcloud37OrientNormalsTowardsCameraLocationCPUERKNS_4core6TensorERS5_S7_ENK3$_0clEvENKUlvE_clEvENKUllE_clEl.exit"
  %.014 = phi i64 [ %16, %.lr.ph ], [ %67, %"_ZZZZN6open3d1t8geometry6kernel10pointcloud37OrientNormalsTowardsCameraLocationCPUERKNS_4core6TensorERS5_S7_ENK3$_0clEvENKUlvE_clEvENKUllE_clEl.exit" ]
  %25 = mul nsw i64 %.014, 3
  %26 = getelementptr inbounds float, ptr %17, i64 %25
  %27 = getelementptr inbounds float, ptr %19, i64 %25
  %28 = load float, ptr %21, align 4, !tbaa !4
  %29 = load float, ptr %27, align 4, !tbaa !4
  %30 = fsub float %28, %29
  %31 = load float, ptr %22, align 4, !tbaa !4
  %32 = getelementptr inbounds nuw i8, ptr %27, i64 4
  %33 = load float, ptr %32, align 4, !tbaa !4
  %34 = fsub float %31, %33
  %35 = load float, ptr %23, align 4, !tbaa !4
  %36 = getelementptr inbounds nuw i8, ptr %27, i64 8
  %37 = load float, ptr %36, align 4, !tbaa !4
  %38 = fsub float %35, %37
  %39 = load float, ptr %26, align 4, !tbaa !4
  %40 = getelementptr inbounds nuw i8, ptr %26, i64 4
  %41 = load float, ptr %40, align 4, !tbaa !4
  %42 = fmul float %41, %41
  %43 = call float @llvm.fmuladd.f32(float %39, float %39, float %42)
  %44 = getelementptr inbounds nuw i8, ptr %26, i64 8
  %45 = load float, ptr %44, align 4, !tbaa !4
  %46 = call float @llvm.fmuladd.f32(float %45, float %45, float %43)
  %47 = fcmp oeq float %46, 0.000000e+00
  br i1 %47, label %48, label %58

48:                                               ; preds = %24
  %49 = fmul float %34, %34
  %50 = call float @llvm.fmuladd.f32(float %30, float %30, float %49)
  %51 = call float @llvm.fmuladd.f32(float %38, float %38, float %50)
  %52 = fcmp oeq float %51, 0.000000e+00
  br i1 %52, label %57, label %53

53:                                               ; preds = %48
  %sqrt39.i = call float @llvm.sqrt.f32(float %51)
  %54 = fdiv float %30, %sqrt39.i
  %55 = fdiv float %34, %sqrt39.i
  %56 = fdiv float %38, %sqrt39.i
  br label %57

57:                                               ; preds = %53, %48
  %.sink40.i = phi float [ %54, %53 ], [ 0.000000e+00, %48 ]
  %.sink.i = phi float [ %55, %53 ], [ 0.000000e+00, %48 ]
  %storemerge.i = phi float [ %56, %53 ], [ 1.000000e+00, %48 ]
  store float %.sink40.i, ptr %26, align 4, !tbaa !4
  store float %.sink.i, ptr %40, align 4, !tbaa !4
  br label %.sink.split.i

58:                                               ; preds = %24
  %59 = fmul float %34, %41
  %60 = call float @llvm.fmuladd.f32(float %39, float %30, float %59)
  %61 = call noundef float @llvm.fmuladd.f32(float %45, float %38, float %60)
  %62 = fcmp olt float %61, 0.000000e+00
  br i1 %62, label %63, label %"_ZZZZN6open3d1t8geometry6kernel10pointcloud37OrientNormalsTowardsCameraLocationCPUERKNS_4core6TensorERS5_S7_ENK3$_0clEvENKUlvE_clEvENKUllE_clEl.exit"

63:                                               ; preds = %58
  %64 = fneg float %39
  store float %64, ptr %26, align 4, !tbaa !4
  %65 = fneg float %41
  store float %65, ptr %40, align 4, !tbaa !4
  %66 = fneg float %45
  br label %.sink.split.i

.sink.split.i:                                    ; preds = %63, %57
  %.sink41.i = phi float [ %66, %63 ], [ %storemerge.i, %57 ]
  store float %.sink41.i, ptr %44, align 4, !tbaa !4
  br label %"_ZZZZN6open3d1t8geometry6kernel10pointcloud37OrientNormalsTowardsCameraLocationCPUERKNS_4core6TensorERS5_S7_ENK3$_0clEvENKUlvE_clEvENKUllE_clEl.exit"

"_ZZZZN6open3d1t8geometry6kernel10pointcloud37OrientNormalsTowardsCameraLocationCPUERKNS_4core6TensorERS5_S7_ENK3$_0clEvENKUlvE_clEvENKUllE_clEl.exit": ; preds = %58, %.sink.split.i
  %67 = add i64 %.014, 1
  %exitcond.not = icmp eq i64 %.014, %15
  br i1 %exitcond.not, label %._crit_edge, label %24

._crit_edge:                                      ; preds = %"_ZZZZN6open3d1t8geometry6kernel10pointcloud37OrientNormalsTowardsCameraLocationCPUERKNS_4core6TensorERS5_S7_ENK3$_0clEvENKUlvE_clEvENKUllE_clEl.exit", %11
  call void @__kmpc_for_static_fini(ptr nonnull @1, i32 %13)
  call void @llvm.lifetime.end.p0(i64 4, ptr nonnull %8) #26
  call void @llvm.lifetime.end.p0(i64 8, ptr nonnull %7) #26
  call void @llvm.lifetime.end.p0(i64 8, ptr nonnull %6) #26
  call void @llvm.lifetime.end.p0(i64 8, ptr nonnull %5) #26
  br label %68

68:                                               ; preds = %._crit_edge, %4
  ret void
}